; Function Attrs: nounwind uwtable
define hidden void @SDL_CancelClipboardData(i32 noundef %0) local_unnamed_addr #0 {
  %2 = tail call ptr @SDL_GetVideoDevice() #6
  %.not = icmp eq i32 %0, 0
  br i1 %.not, label %6, label %3

3:                                                ; preds = %1
  %4 = getelementptr inbounds nuw i8, ptr %2, i64 848
  %5 = load i32, ptr %4, align 8
  %.not10 = icmp eq i32 %0, %5
  br i1 %.not10, label %6, label %25

6:                                                ; preds = %3, %1
  %7 = getelementptr inbounds nuw i8, ptr %2, i64 864
  %8 = load ptr, ptr %7, align 8
  %.not11 = icmp eq ptr %8, null
  br i1 %.not11, label %12, label %9

9:                                                ; preds = %6
  %10 = getelementptr inbounds nuw i8, ptr %2, i64 872
  %11 = load ptr, ptr %10, align 8
  tail call void %8(ptr noundef %11) #6
  br label %12

12:                                               ; preds = %9, %6
  %13 = getelementptr inbounds nuw i8, ptr %2, i64 880
  %14 = load ptr, ptr %13, align 8
  %.not.i = icmp eq ptr %14, null
  br i1 %.not.i, label %SDL_FreeClipboardMimeTypes.exit, label %.preheader.i

.preheader.i:                                     ; preds = %12
  %15 = getelementptr inbounds nuw i8, ptr %2, i64 888
  %16 = load i64, ptr %15, align 8
  %.not9.i = icmp eq i64 %16, 0
  br i1 %.not9.i, label %._crit_edge.i, label %.lr.ph.i

._crit_edge.loopexit.i:                           ; preds = %.lr.ph.i
  %.pre.i = load ptr, ptr %13, align 8
  br label %._crit_edge.i

._crit_edge.i:                                    ; preds = %._crit_edge.loopexit.i, %.preheader.i
  %17 = phi ptr [ %.pre.i, %._crit_edge.loopexit.i ], [ %14, %.preheader.i ]
  tail call void @SDL_free_REAL(ptr noundef %17) #6
  tail call void @llvm.memset.p0.i64(ptr noundef nonnull align 8 dereferenceable(16) %13, i8 0, i64 16, i1 false)
  br label %SDL_FreeClipboardMimeTypes.exit

.lr.ph.i:                                         ; preds = %.preheader.i, %.lr.ph.i
  %.08.i = phi i64 [ %21, %.lr.ph.i ], [ 0, %.preheader.i ]
  %18 = load ptr, ptr %13, align 8
  %19 = getelementptr inbounds nuw ptr, ptr %18, i64 %.08.i
  %20 = load ptr, ptr %19, align 8
  tail call void @SDL_free_REAL(ptr noundef %20) #6
  %21 = add nuw i64 %.08.i, 1
  %22 = load i64, ptr %15, align 8
  %23 = icmp ult i64 %21, %22
  br i1 %23, label %.lr.ph.i, label %._crit_edge.loopexit.i, !llvm.loop !3

SDL_FreeClipboardMimeTypes.exit:                  ; preds = %12, %._crit_edge.i
  %24 = getelementptr inbounds nuw i8, ptr %2, i64 856
  tail call void @llvm.memset.p0.i64(ptr noundef nonnull align 8 dereferenceable(24) %24, i8 0, i64 24, i1 false)
  br label %25

25:                                               ; preds = %3, %SDL_FreeClipboardMimeTypes.exit
  ret void
}